target datalayout = "e-m:e-p270:32:32-p271:32:32-p272:64:64-i64:64-i128:128-f80:128-n8:16:32:64-S128"
target triple = "x86_64-pc-linux-gnu"

%struct.AVHWFramesContext = type { ptr, ptr, ptr, ptr, ptr, ptr, ptr, i32, i32, i32, i32, i32 }
%struct.AVBufferRef = type { ptr, ptr, i64 }
%struct.AVFrame = type { [8 x ptr], [8 x i32], ptr, i32, i32, i32, i32, i32, %struct.AVRational, i64, i64, %struct.AVRational, i32, ptr, i32, i32, [8 x ptr], ptr, i32, ptr, i32, i32, i32, i32, i32, i32, i32, i64, ptr, i32, ptr, ptr, i64, i64, i64, i64, ptr, %struct.AVChannelLayout, i64 }
%struct.AVRational = type { i32, i32 }
%struct.AVChannelLayout = type { i32, i32, %union.anon.2, ptr }
%union.anon.2 = type { i64 }

; Function Attrs: nounwind uwtable
define internal i32 @vaapi_get_buffer(ptr noundef %0, ptr noundef %1) #0 {
  %3 = alloca i32, align 4
  %4 = alloca ptr, align 8
  %5 = alloca ptr, align 8
  store ptr %0, ptr %4, align 8, !tbaa !97
  store ptr %1, ptr %5, align 8, !tbaa !143
  %6 = load ptr, ptr %4, align 8, !tbaa !97
  %7 = getelementptr inbounds nuw %struct.AVHWFramesContext, ptr %6, i32 0, i32 6
  %8 = load ptr, ptr %7, align 8, !tbaa !112
  %9 = call ptr @av_buffer_pool_get(ptr noundef %8)
  %10 = load ptr, ptr %5, align 8, !tbaa !143
  %11 = getelementptr inbounds nuw %struct.AVFrame, ptr %10, i32 0, i32 16
  %12 = getelementptr inbounds [8 x ptr], ptr %11, i64 0, i64 0
  store ptr %9, ptr %12, align 8, !tbaa !108
  %13 = load ptr, ptr %5, align 8, !tbaa !143
  %14 = getelementptr inbounds nuw %struct.AVFrame, ptr %13, i32 0, i32 16
  %15 = getelementptr inbounds [8 x ptr], ptr %14, i64 0, i64 0
  %16 = load ptr, ptr %15, align 8, !tbaa !108
  %17 = icmp ne ptr %16, null
  br i1 %17, label %19, label %18

18:                                               ; preds = %2
  store i32 -12, ptr %3, align 4
  br label %41

19:                                               ; preds = %2
  %20 = load ptr, ptr %5, align 8, !tbaa !143
  %21 = getelementptr inbounds nuw %struct.AVFrame, ptr %20, i32 0, i32 16
  %22 = getelementptr inbounds [8 x ptr], ptr %21, i64 0, i64 0
  %23 = load ptr, ptr %22, align 8, !tbaa !108
  %24 = getelementptr inbounds nuw %struct.AVBufferRef, ptr %23, i32 0, i32 1
  %25 = load ptr, ptr %24, align 8, !tbaa !135
  %26 = load ptr, ptr %5, align 8, !tbaa !143
  %27 = getelementptr inbounds nuw %struct.AVFrame, ptr %26, i32 0, i32 0
  %28 = getelementptr inbounds [8 x ptr], ptr %27, i64 0, i64 3
  store ptr %25, ptr %28, align 8, !tbaa !9
  %29 = load ptr, ptr %5, align 8, !tbaa !143
  %30 = getelementptr inbounds nuw %struct.AVFrame, ptr %29, i32 0, i32 6
  store i32 44, ptr %30, align 4, !tbaa !145
  %31 = load ptr, ptr %4, align 8, !tbaa !97
  %32 = getelementptr inbounds nuw %struct.AVHWFramesContext, ptr %31, i32 0, i32 10
  %33 = load i32, ptr %32, align 4, !tbaa !152
  %34 = load ptr, ptr %5, align 8, !tbaa !143
  %35 = getelementptr inbounds nuw %struct.AVFrame, ptr %34, i32 0, i32 3
  store i32 %33, ptr %35, align 8, !tbaa !153
  %36 = load ptr, ptr %4, align 8, !tbaa !97
  %37 = getelementptr inbounds nuw %struct.AVHWFramesContext, ptr %36, i32 0, i32 11
  %38 = load i32, ptr %37, align 8, !tbaa !154
  %39 = load ptr, ptr %5, align 8, !tbaa !143
  %40 = getelementptr inbounds nuw %struct.AVFrame, ptr %39, i32 0, i32 4
  store i32 %38, ptr %40, align 4, !tbaa !155
  store i32 0, ptr %3, align 4
  br label %41

41:                                               ; preds = %19, %18
  %42 = load i32, ptr %3, align 4
  ret i32 %42
}