; Function Attrs: nounwind uwtable
define internal range(i32 -12, 1) i32 @vaapi_get_buffer(ptr noundef readonly captures(none) %0, ptr noundef writeonly captures(none) initializes((184, 192)) %1) #0 {
  %3 = getelementptr inbounds nuw i8, ptr %0, i64 48
  %4 = load ptr, ptr %3, align 8, !tbaa !84
  %5 = tail call ptr @av_buffer_pool_get(ptr noundef %4) #11
  %6 = getelementptr inbounds nuw i8, ptr %1, i64 184
  store ptr %5, ptr %6, align 8, !tbaa !81
  %.not = icmp eq ptr %5, null
  br i1 %.not, label %18, label %7

7:                                                ; preds = %2
  %8 = getelementptr inbounds nuw i8, ptr %5, i64 8
  %9 = load ptr, ptr %8, align 8, !tbaa !103
  %10 = getelementptr inbounds nuw i8, ptr %1, i64 24
  store ptr %9, ptr %10, align 8, !tbaa !112
  %11 = getelementptr inbounds nuw i8, ptr %1, i64 116
  store i32 44, ptr %11, align 4, !tbaa !113
  %12 = getelementptr inbounds nuw i8, ptr %0, i64 68
  %13 = load i32, ptr %12, align 4, !tbaa !122
  %14 = getelementptr inbounds nuw i8, ptr %1, i64 104
  store i32 %13, ptr %14, align 8, !tbaa !123
  %15 = getelementptr inbounds nuw i8, ptr %0, i64 72
  %16 = load i32, ptr %15, align 8, !tbaa !124
  %17 = getelementptr inbounds nuw i8, ptr %1, i64 108
  store i32 %16, ptr %17, align 4, !tbaa !125
  br label %18

18:                                               ; preds = %2, %7
  %.0 = phi i32 [ 0, %7 ], [ -12, %2 ]
  ret i32 %.0
}